target datalayout = "e-m:e-p270:32:32-p271:32:32-p272:64:64-i64:64-i128:128-f80:128-n8:16:32:64-S128"
target triple = "x86_64-pc-linux-gnu"

@mainctx = internal global ptr null, align 8
@.str.28 = private unnamed_addr constant [34 x i8] c"../openssl/test/evp_extra_test2.c\00", align 1
@.str.72 = private unnamed_addr constant [54 x i8] c"key = EVP_PKEY_Q_keygen(mainctx, NULL, \22EC\22, \22P-256\22)\00", align 1
@.str.73 = private unnamed_addr constant [3 x i8] c"EC\00", align 1
@.str.74 = private unnamed_addr constant [6 x i8] c"P-256\00", align 1
@.str.75 = private unnamed_addr constant [38 x i8] c"do_pkey_tofrom_data_select(key, \22EC\22)\00", align 1

; Function Attrs: nounwind uwtable
define internal i32 @test_ec_tofrom_data_select() #0 {
  %1 = alloca i32, align 4
  %2 = alloca ptr, align 8
  call void @llvm.lifetime.start.p0(i64 4, ptr %1) #7
  call void @llvm.lifetime.start.p0(i64 8, ptr %2) #7
  store ptr null, ptr %2, align 8, !tbaa !13
  %3 = load ptr, ptr @mainctx, align 8, !tbaa !4
  %4 = call ptr (ptr, ptr, ptr, ...) @EVP_PKEY_Q_keygen(ptr noundef %3, ptr noundef null, ptr noundef @.str.73, ptr noundef @.str.74)
  store ptr %4, ptr %2, align 8, !tbaa !13
  %5 = call i32 @test_ptr(ptr noundef @.str.28, i32 noundef 542, ptr noundef @.str.72, ptr noundef %4)
  %6 = icmp ne i32 %5, 0
  br i1 %6, label %7, label %14

7:                                                ; preds = %0
  %8 = load ptr, ptr %2, align 8, !tbaa !13
  %9 = call i32 @do_pkey_tofrom_data_select(ptr noundef %8, ptr noundef @.str.73)
  %10 = icmp ne i32 %9, 0
  %11 = zext i1 %10 to i32
  %12 = call i32 @test_true(ptr noundef @.str.28, i32 noundef 543, ptr noundef @.str.75, i32 noundef %11)
  %13 = icmp ne i32 %12, 0
  br label %14

14:                                               ; preds = %7, %0
  %15 = phi i1 [ false, %0 ], [ %13, %7 ]
  %16 = zext i1 %15 to i32
  store i32 %16, ptr %1, align 4, !tbaa !11
  %17 = load ptr, ptr %2, align 8, !tbaa !13
  call void @EVP_PKEY_free(ptr noundef %17)
  %18 = load i32, ptr %1, align 4, !tbaa !11
  call void @llvm.lifetime.end.p0(i64 8, ptr %2) #7
  call void @llvm.lifetime.end.p0(i64 4, ptr %1) #7
  ret i32 %18
}